target datalayout = "e-m:e-p270:32:32-p271:32:32-p272:64:64-i64:64-i128:128-f80:128-n8:16:32:64-S128"
target triple = "x86_64-pc-linux-gnu"

%struct.psa_storage_info_t = type { i32, i32 }
%struct.psa_persistent_key_storage_format = type { [8 x i8], [4 x i8], [4 x i8], [2 x i8], [2 x i8], [12 x i8], [4 x i8], [0 x i8] }
%struct.psa_key_attributes_s = type { i16, i16, i32, %struct.psa_key_policy_s, i32 }
%struct.psa_key_policy_s = type { i32, i32, i32 }

@.str = private unnamed_addr constant [8 x i8] c"PSA\00KEY\00", align 1

; Function Attrs: alwaysinline nounwind uwtable
define internal zeroext i16 @mbedtls_get_unaligned_uint16(ptr noundef %0) #4 {
  %2 = alloca ptr, align 8
  %3 = alloca i16, align 2
  store ptr %0, ptr %2, align 8, !tbaa !14
  call void @llvm.lifetime.start.p0(i64 2, ptr %3) #7
  %4 = load ptr, ptr %2, align 8, !tbaa !14
  call void @llvm.memcpy.p0.p0.i64(ptr align 2 %3, ptr align 1 %4, i64 2, i1 false)
  %5 = load i16, ptr %3, align 2, !tbaa !24
  call void @llvm.lifetime.end.p0(i64 2, ptr %3) #7
  ret i16 %5
}

; Function Attrs: alwaysinline nounwind uwtable
define internal i32 @mbedtls_get_unaligned_uint32(ptr noundef %0) #4 {
  %2 = alloca ptr, align 8
  %3 = alloca i32, align 4
  store ptr %0, ptr %2, align 8, !tbaa !14
  call void @llvm.lifetime.start.p0(i64 4, ptr %3) #7
  %4 = load ptr, ptr %2, align 8, !tbaa !14
  call void @llvm.memcpy.p0.p0.i64(ptr align 4 %3, ptr align 1 %4, i64 4, i1 false)
  %5 = load i32, ptr %3, align 4, !tbaa !3
  call void @llvm.lifetime.end.p0(i64 4, ptr %3) #7
  ret i32 %5
}

; Function Attrs: nounwind uwtable
define internal i32 @check_magic_header(ptr noundef %0) #0 {
  %2 = alloca i32, align 4
  %3 = alloca ptr, align 8
  store ptr %0, ptr %3, align 8, !tbaa !9
  %4 = load ptr, ptr %3, align 8, !tbaa !9
  %5 = call i32 @memcmp(ptr noundef %4, ptr noundef @.str, i64 noundef 8) #9
  %6 = icmp ne i32 %5, 0
  br i1 %6, label %7, label %8

7:                                                ; preds = %1
  store i32 -153, ptr %2, align 4
  br label %9

8:                                                ; preds = %1
  store i32 0, ptr %2, align 4
  br label %9

9:                                                ; preds = %8, %7
  %10 = load i32, ptr %2, align 4
  ret i32 %10
}

; Function Attrs: nounwind uwtable
define internal i64 @psa_its_identifier_of_slot(i32 noundef %0) #0 {
  %2 = alloca i32, align 4
  store i32 %0, ptr %2, align 4, !tbaa !3
  %3 = load i32, ptr %2, align 4, !tbaa !3
  %4 = zext i32 %3 to i64
  ret i64 %4
}

; Function Attrs: nounwind uwtable
define hidden i32 @psa_parse_key_data_from_storage(ptr noundef %0, i64 noundef %1, ptr noundef %2, ptr noundef %3, ptr noundef %4) #0 {
  %6 = alloca i32, align 4
  %7 = alloca ptr, align 8
  %8 = alloca i64, align 8
  %9 = alloca ptr, align 8
  %10 = alloca ptr, align 8
  %11 = alloca ptr, align 8
  %12 = alloca i32, align 4
  %13 = alloca ptr, align 8
  %14 = alloca i32, align 4
  %15 = alloca i32, align 4
  store ptr %0, ptr %7, align 8, !tbaa !9
  store i64 %1, ptr %8, align 8, !tbaa !7
  store ptr %2, ptr %9, align 8, !tbaa !25
  store ptr %3, ptr %10, align 8, !tbaa !28
  store ptr %4, ptr %11, align 8, !tbaa !12
  call void @llvm.lifetime.start.p0(i64 4, ptr %12) #7
  call void @llvm.lifetime.start.p0(i64 8, ptr %13) #7
  %16 = load ptr, ptr %7, align 8, !tbaa !9
  store ptr %16, ptr %13, align 8, !tbaa !14
  call void @llvm.lifetime.start.p0(i64 4, ptr %14) #7
  %17 = load i64, ptr %8, align 8, !tbaa !7
  %18 = icmp ult i64 %17, 36
  br i1 %18, label %19, label %20

19:                                               ; preds = %5
  store i32 -153, ptr %6, align 4
  store i32 1, ptr %15, align 4
  br label %127

20:                                               ; preds = %5
  %21 = load ptr, ptr %7, align 8, !tbaa !9
  %22 = call i32 @check_magic_header(ptr noundef %21)
  store i32 %22, ptr %12, align 4, !tbaa !3
  %23 = load i32, ptr %12, align 4, !tbaa !3
  %24 = icmp ne i32 %23, 0
  br i1 %24, label %25, label %27

25:                                               ; preds = %20
  %26 = load i32, ptr %12, align 4, !tbaa !3
  store i32 %26, ptr %6, align 4
  store i32 1, ptr %15, align 4
  br label %127

27:                                               ; preds = %20
  %28 = load ptr, ptr %13, align 8, !tbaa !14
  %29 = getelementptr inbounds nuw %struct.psa_persistent_key_storage_format, ptr %28, i32 0, i32 1
  %30 = getelementptr inbounds [4 x i8], ptr %29, i64 0, i64 0
  %31 = getelementptr inbounds i8, ptr %30, i64 0
  %32 = call i32 @mbedtls_get_unaligned_uint32(ptr noundef %31)
  store i32 %32, ptr %14, align 4, !tbaa !3
  %33 = load i32, ptr %14, align 4, !tbaa !3
  %34 = icmp ne i32 %33, 0
  br i1 %34, label %35, label %36

35:                                               ; preds = %27
  store i32 -153, ptr %6, align 4
  store i32 1, ptr %15, align 4
  br label %127

36:                                               ; preds = %27
  %37 = load ptr, ptr %13, align 8, !tbaa !14
  %38 = getelementptr inbounds nuw %struct.psa_persistent_key_storage_format, ptr %37, i32 0, i32 6
  %39 = getelementptr inbounds [4 x i8], ptr %38, i64 0, i64 0
  %40 = getelementptr inbounds i8, ptr %39, i64 0
  %41 = call i32 @mbedtls_get_unaligned_uint32(ptr noundef %40)
  %42 = zext i32 %41 to i64
  %43 = load ptr, ptr %10, align 8, !tbaa !28
  store i64 %42, ptr %43, align 8, !tbaa !7
  %44 = load ptr, ptr %10, align 8, !tbaa !28
  %45 = load i64, ptr %44, align 8, !tbaa !7
  %46 = load i64, ptr %8, align 8, !tbaa !7
  %47 = sub i64 %46, 36
  %48 = icmp ugt i64 %45, %47
  br i1 %48, label %53, label %49

49:                                               ; preds = %36
  %50 = load ptr, ptr %10, align 8, !tbaa !28
  %51 = load i64, ptr %50, align 8, !tbaa !7
  %52 = icmp ugt i64 %51, 8191
  br i1 %52, label %53, label %54

53:                                               ; preds = %49, %36
  store i32 -153, ptr %6, align 4
  store i32 1, ptr %15, align 4
  br label %127

54:                                               ; preds = %49
  %55 = load ptr, ptr %10, align 8, !tbaa !28
  %56 = load i64, ptr %55, align 8, !tbaa !7
  %57 = icmp eq i64 %56, 0
  br i1 %57, label %58, label %60

58:                                               ; preds = %54
  %59 = load ptr, ptr %9, align 8, !tbaa !25
  store ptr null, ptr %59, align 8, !tbaa !9
  br label %77

60:                                               ; preds = %54
  %61 = load ptr, ptr %10, align 8, !tbaa !28
  %62 = load i64, ptr %61, align 8, !tbaa !7
  %63 = call noalias ptr @calloc(i64 noundef 1, i64 noundef %62) #8
  %64 = load ptr, ptr %9, align 8, !tbaa !25
  store ptr %63, ptr %64, align 8, !tbaa !9
  %65 = load ptr, ptr %9, align 8, !tbaa !25
  %66 = load ptr, ptr %65, align 8, !tbaa !9
  %67 = icmp eq ptr %66, null
  br i1 %67, label %68, label %69

68:                                               ; preds = %60
  store i32 -141, ptr %6, align 4
  store i32 1, ptr %15, align 4
  br label %127

69:                                               ; preds = %60
  %70 = load ptr, ptr %9, align 8, !tbaa !25
  %71 = load ptr, ptr %70, align 8, !tbaa !9
  %72 = load ptr, ptr %13, align 8, !tbaa !14
  %73 = getelementptr inbounds nuw %struct.psa_persistent_key_storage_format, ptr %72, i32 0, i32 7
  %74 = getelementptr inbounds [0 x i8], ptr %73, i64 0, i64 0
  %75 = load ptr, ptr %10, align 8, !tbaa !28
  %76 = load i64, ptr %75, align 8, !tbaa !7
  call void @llvm.memcpy.p0.p0.i64(ptr align 1 %71, ptr align 1 %74, i64 %76, i1 false)
  br label %77

77:                                               ; preds = %69, %58
  %78 = load ptr, ptr %13, align 8, !tbaa !14
  %79 = getelementptr inbounds nuw %struct.psa_persistent_key_storage_format, ptr %78, i32 0, i32 2
  %80 = getelementptr inbounds [4 x i8], ptr %79, i64 0, i64 0
  %81 = getelementptr inbounds i8, ptr %80, i64 0
  %82 = call i32 @mbedtls_get_unaligned_uint32(ptr noundef %81)
  %83 = load ptr, ptr %11, align 8, !tbaa !12
  %84 = getelementptr inbounds nuw %struct.psa_key_attributes_s, ptr %83, i32 0, i32 2
  store i32 %82, ptr %84, align 4, !tbaa !15
  %85 = load ptr, ptr %13, align 8, !tbaa !14
  %86 = getelementptr inbounds nuw %struct.psa_persistent_key_storage_format, ptr %85, i32 0, i32 3
  %87 = getelementptr inbounds [2 x i8], ptr %86, i64 0, i64 0
  %88 = getelementptr inbounds i8, ptr %87, i64 0
  %89 = call zeroext i16 @mbedtls_get_unaligned_uint16(ptr noundef %88)
  %90 = zext i16 %89 to i32
  %91 = trunc i32 %90 to i16
  %92 = load ptr, ptr %11, align 8, !tbaa !12
  %93 = getelementptr inbounds nuw %struct.psa_key_attributes_s, ptr %92, i32 0, i32 0
  store i16 %91, ptr %93, align 4, !tbaa !19
  %94 = load ptr, ptr %13, align 8, !tbaa !14
  %95 = getelementptr inbounds nuw %struct.psa_persistent_key_storage_format, ptr %94, i32 0, i32 4
  %96 = getelementptr inbounds [2 x i8], ptr %95, i64 0, i64 0
  %97 = getelementptr inbounds i8, ptr %96, i64 0
  %98 = call zeroext i16 @mbedtls_get_unaligned_uint16(ptr noundef %97)
  %99 = zext i16 %98 to i32
  %100 = trunc i32 %99 to i16
  %101 = load ptr, ptr %11, align 8, !tbaa !12
  %102 = getelementptr inbounds nuw %struct.psa_key_attributes_s, ptr %101, i32 0, i32 1
  store i16 %100, ptr %102, align 2, !tbaa !20
  %103 = load ptr, ptr %13, align 8, !tbaa !14
  %104 = getelementptr inbounds nuw %struct.psa_persistent_key_storage_format, ptr %103, i32 0, i32 5
  %105 = getelementptr inbounds [12 x i8], ptr %104, i64 0, i64 0
  %106 = getelementptr inbounds i8, ptr %105, i64 0
  %107 = call i32 @mbedtls_get_unaligned_uint32(ptr noundef %106)
  %108 = load ptr, ptr %11, align 8, !tbaa !12
  %109 = getelementptr inbounds nuw %struct.psa_key_attributes_s, ptr %108, i32 0, i32 3
  %110 = getelementptr inbounds nuw %struct.psa_key_policy_s, ptr %109, i32 0, i32 0
  store i32 %107, ptr %110, align 4, !tbaa !21
  %111 = load ptr, ptr %13, align 8, !tbaa !14
  %112 = getelementptr inbounds nuw %struct.psa_persistent_key_storage_format, ptr %111, i32 0, i32 5
  %113 = getelementptr inbounds [12 x i8], ptr %112, i64 0, i64 0
  %114 = getelementptr inbounds nuw i8, ptr %113, i64 4
  %115 = call i32 @mbedtls_get_unaligned_uint32(ptr noundef %114)
  %116 = load ptr, ptr %11, align 8, !tbaa !12
  %117 = getelementptr inbounds nuw %struct.psa_key_attributes_s, ptr %116, i32 0, i32 3
  %118 = getelementptr inbounds nuw %struct.psa_key_policy_s, ptr %117, i32 0, i32 1
  store i32 %115, ptr %118, align 4, !tbaa !22
  %119 = load ptr, ptr %13, align 8, !tbaa !14
  %120 = getelementptr inbounds nuw %struct.psa_persistent_key_storage_format, ptr %119, i32 0, i32 5
  %121 = getelementptr inbounds [12 x i8], ptr %120, i64 0, i64 0
  %122 = getelementptr inbounds nuw i8, ptr %121, i64 8
  %123 = call i32 @mbedtls_get_unaligned_uint32(ptr noundef %122)
  %124 = load ptr, ptr %11, align 8, !tbaa !12
  %125 = getelementptr inbounds nuw %struct.psa_key_attributes_s, ptr %124, i32 0, i32 3
  %126 = getelementptr inbounds nuw %struct.psa_key_policy_s, ptr %125, i32 0, i32 2
  store i32 %123, ptr %126, align 4, !tbaa !23
  store i32 0, ptr %6, align 4
  store i32 1, ptr %15, align 4
  br label %127

127:                                              ; preds = %77, %68, %53, %35, %25, %19
  call void @llvm.lifetime.end.p0(i64 4, ptr %14) #7
  call void @llvm.lifetime.end.p0(i64 8, ptr %13) #7
  call void @llvm.lifetime.end.p0(i64 4, ptr %12) #7
  %128 = load i32, ptr %6, align 4
  ret i32 %128
}

; Function Attrs: nounwind uwtable
define internal i32 @psa_crypto_storage_load(i32 noundef %0, ptr noundef %1, i64 noundef %2) #0 {
  %4 = alloca i32, align 4
  %5 = alloca i32, align 4
  %6 = alloca ptr, align 8
  %7 = alloca i64, align 8
  %8 = alloca i32, align 4
  %9 = alloca i64, align 8
  %10 = alloca %struct.psa_storage_info_t, align 4
  %11 = alloca i64, align 8
  %12 = alloca i32, align 4
  store i32 %0, ptr %5, align 4, !tbaa !3
  store ptr %1, ptr %6, align 8, !tbaa !9
  store i64 %2, ptr %7, align 8, !tbaa !7
  call void @llvm.lifetime.start.p0(i64 4, ptr %8) #7
  call void @llvm.lifetime.start.p0(i64 8, ptr %9) #7
  %13 = load i32, ptr %5, align 4, !tbaa !3
  %14 = call i64 @psa_its_identifier_of_slot(i32 noundef %13)
  store i64 %14, ptr %9, align 8, !tbaa !7
  call void @llvm.lifetime.start.p0(i64 8, ptr %10) #7
  call void @llvm.lifetime.start.p0(i64 8, ptr %11) #7
  store i64 0, ptr %11, align 8, !tbaa !7
  %15 = load i64, ptr %9, align 8, !tbaa !7
  %16 = call i32 @psa_its_get_info(i64 noundef %15, ptr noundef %10)
  store i32 %16, ptr %8, align 4, !tbaa !3
  %17 = load i32, ptr %8, align 4, !tbaa !3
  %18 = icmp ne i32 %17, 0
  br i1 %18, label %19, label %21

19:                                               ; preds = %3
  %20 = load i32, ptr %8, align 4, !tbaa !3
  store i32 %20, ptr %4, align 4
  store i32 1, ptr %12, align 4
  br label %33

21:                                               ; preds = %3
  %22 = load i64, ptr %9, align 8, !tbaa !7
  %23 = load i64, ptr %7, align 8, !tbaa !7
  %24 = trunc i64 %23 to i32
  %25 = load ptr, ptr %6, align 8, !tbaa !9
  %26 = call i32 @psa_its_get(i64 noundef %22, i32 noundef 0, i32 noundef %24, ptr noundef %25, ptr noundef %11)
  store i32 %26, ptr %8, align 4, !tbaa !3
  %27 = load i64, ptr %7, align 8, !tbaa !7
  %28 = load i64, ptr %11, align 8, !tbaa !7
  %29 = icmp ne i64 %27, %28
  br i1 %29, label %30, label %31

30:                                               ; preds = %21
  store i32 -153, ptr %4, align 4
  store i32 1, ptr %12, align 4
  br label %33

31:                                               ; preds = %21
  %32 = load i32, ptr %8, align 4, !tbaa !3
  store i32 %32, ptr %4, align 4
  store i32 1, ptr %12, align 4
  br label %33

33:                                               ; preds = %31, %30, %19
  call void @llvm.lifetime.end.p0(i64 8, ptr %11) #7
  call void @llvm.lifetime.end.p0(i64 8, ptr %10) #7
  call void @llvm.lifetime.end.p0(i64 8, ptr %9) #7
  call void @llvm.lifetime.end.p0(i64 4, ptr %8) #7
  %34 = load i32, ptr %4, align 4
  ret i32 %34
}

; Function Attrs: nounwind uwtable
define internal i32 @psa_crypto_storage_get_data_length(i32 noundef %0, ptr noundef %1) #0 {
  %3 = alloca i32, align 4
  %4 = alloca i32, align 4
  %5 = alloca ptr, align 8
  %6 = alloca i32, align 4
  %7 = alloca i64, align 8
  %8 = alloca %struct.psa_storage_info_t, align 4
  %9 = alloca i32, align 4
  store i32 %0, ptr %4, align 4, !tbaa !3
  store ptr %1, ptr %5, align 8, !tbaa !28
  call void @llvm.lifetime.start.p0(i64 4, ptr %6) #7
  call void @llvm.lifetime.start.p0(i64 8, ptr %7) #7
  %10 = load i32, ptr %4, align 4, !tbaa !3
  %11 = call i64 @psa_its_identifier_of_slot(i32 noundef %10)
  store i64 %11, ptr %7, align 8, !tbaa !7
  call void @llvm.lifetime.start.p0(i64 8, ptr %8) #7
  %12 = load i64, ptr %7, align 8, !tbaa !7
  %13 = call i32 @psa_its_get_info(i64 noundef %12, ptr noundef %8)
  store i32 %13, ptr %6, align 4, !tbaa !3
  %14 = load i32, ptr %6, align 4, !tbaa !3
  %15 = icmp ne i32 %14, 0
  br i1 %15, label %16, label %18

16:                                               ; preds = %2
  %17 = load i32, ptr %6, align 4, !tbaa !3
  store i32 %17, ptr %3, align 4
  store i32 1, ptr %9, align 4
  br label %23

18:                                               ; preds = %2
  %19 = getelementptr inbounds nuw %struct.psa_storage_info_t, ptr %8, i32 0, i32 0
  %20 = load i32, ptr %19, align 4, !tbaa !31
  %21 = zext i32 %20 to i64
  %22 = load ptr, ptr %5, align 8, !tbaa !28
  store i64 %21, ptr %22, align 8, !tbaa !7
  store i32 0, ptr %3, align 4
  store i32 1, ptr %9, align 4
  br label %23

23:                                               ; preds = %18, %16
  call void @llvm.lifetime.end.p0(i64 8, ptr %8) #7
  call void @llvm.lifetime.end.p0(i64 8, ptr %7) #7
  call void @llvm.lifetime.end.p0(i64 4, ptr %6) #7
  %24 = load i32, ptr %3, align 4
  ret i32 %24
}

; Function Attrs: nounwind uwtable
define hidden i32 @psa_load_persistent_key(ptr noundef %0, ptr noundef %1, ptr noundef %2) #0 {
  %4 = alloca i32, align 4
  %5 = alloca ptr, align 8
  %6 = alloca ptr, align 8
  %7 = alloca ptr, align 8
  %8 = alloca i32, align 4
  %9 = alloca ptr, align 8
  %10 = alloca i64, align 8
  %11 = alloca i32, align 4
  %12 = alloca i32, align 4
  store ptr %0, ptr %5, align 8, !tbaa !12
  store ptr %1, ptr %6, align 8, !tbaa !25
  store ptr %2, ptr %7, align 8, !tbaa !28
  call void @llvm.lifetime.start.p0(i64 4, ptr %8) #7
  store i32 0, ptr %8, align 4, !tbaa !3
  call void @llvm.lifetime.start.p0(i64 8, ptr %9) #7
  call void @llvm.lifetime.start.p0(i64 8, ptr %10) #7
  store i64 0, ptr %10, align 8, !tbaa !7
  call void @llvm.lifetime.start.p0(i64 4, ptr %11) #7
  %13 = load ptr, ptr %5, align 8, !tbaa !12
  %14 = getelementptr inbounds nuw %struct.psa_key_attributes_s, ptr %13, i32 0, i32 4
  %15 = load i32, ptr %14, align 4, !tbaa !30
  store i32 %15, ptr %11, align 4, !tbaa !3
  %16 = load i32, ptr %11, align 4, !tbaa !3
  %17 = call i32 @psa_crypto_storage_get_data_length(i32 noundef %16, ptr noundef %10)
  store i32 %17, ptr %8, align 4, !tbaa !3
  %18 = load i32, ptr %8, align 4, !tbaa !3
  %19 = icmp ne i32 %18, 0
  br i1 %19, label %20, label %22

20:                                               ; preds = %3
  %21 = load i32, ptr %8, align 4, !tbaa !3
  store i32 %21, ptr %4, align 4
  store i32 1, ptr %12, align 4
  br label %59

22:                                               ; preds = %3
  %23 = load i64, ptr %10, align 8, !tbaa !7
  %24 = call noalias ptr @calloc(i64 noundef 1, i64 noundef %23) #8
  store ptr %24, ptr %9, align 8, !tbaa !9
  %25 = load ptr, ptr %9, align 8, !tbaa !9
  %26 = icmp eq ptr %25, null
  br i1 %26, label %27, label %28

27:                                               ; preds = %22
  store i32 -141, ptr %4, align 4
  store i32 1, ptr %12, align 4
  br label %59

28:                                               ; preds = %22
  %29 = load i32, ptr %11, align 4, !tbaa !3
  %30 = load ptr, ptr %9, align 8, !tbaa !9
  %31 = load i64, ptr %10, align 8, !tbaa !7
  %32 = call i32 @psa_crypto_storage_load(i32 noundef %29, ptr noundef %30, i64 noundef %31)
  store i32 %32, ptr %8, align 4, !tbaa !3
  %33 = load i32, ptr %8, align 4, !tbaa !3
  %34 = icmp ne i32 %33, 0
  br i1 %34, label %35, label %36

35:                                               ; preds = %28
  br label %55

36:                                               ; preds = %28
  %37 = load ptr, ptr %9, align 8, !tbaa !9
  %38 = load i64, ptr %10, align 8, !tbaa !7
  %39 = load ptr, ptr %6, align 8, !tbaa !25
  %40 = load ptr, ptr %7, align 8, !tbaa !28
  %41 = load ptr, ptr %5, align 8, !tbaa !12
  %42 = call i32 @psa_parse_key_data_from_storage(ptr noundef %37, i64 noundef %38, ptr noundef %39, ptr noundef %40, ptr noundef %41)
  store i32 %42, ptr %8, align 4, !tbaa !3
  %43 = load i32, ptr %8, align 4, !tbaa !3
  %44 = icmp eq i32 %43, 0
  br i1 %44, label %45, label %54

45:                                               ; preds = %36
  %46 = load ptr, ptr %6, align 8, !tbaa !25
  %47 = load ptr, ptr %46, align 8, !tbaa !9
  %48 = icmp eq ptr %47, null
  br i1 %48, label %53, label %49

49:                                               ; preds = %45
  %50 = load ptr, ptr %7, align 8, !tbaa !28
  %51 = load i64, ptr %50, align 8, !tbaa !7
  %52 = icmp eq i64 %51, 0
  br i1 %52, label %53, label %54

53:                                               ; preds = %49, %45
  store i32 -146, ptr %8, align 4, !tbaa !3
  br label %54

54:                                               ; preds = %53, %49, %36
  br label %55

55:                                               ; preds = %54, %35
  %56 = load ptr, ptr %9, align 8, !tbaa !9
  %57 = load i64, ptr %10, align 8, !tbaa !7
  call void @mbedtls_zeroize_and_free(ptr noundef %56, i64 noundef %57)
  %58 = load i32, ptr %8, align 4, !tbaa !3
  store i32 %58, ptr %4, align 4
  store i32 1, ptr %12, align 4
  br label %59

59:                                               ; preds = %55, %27, %20
  call void @llvm.lifetime.end.p0(i64 4, ptr %11) #7
  call void @llvm.lifetime.end.p0(i64 8, ptr %10) #7
  call void @llvm.lifetime.end.p0(i64 8, ptr %9) #7
  call void @llvm.lifetime.end.p0(i64 4, ptr %8) #7
  %60 = load i32, ptr %4, align 4
  ret i32 %60
}