; Function Attrs: nounwind uwtable
define hidden i32 @psa_load_persistent_key(ptr noundef captures(none) %0, ptr noundef writeonly captures(none) %1, ptr noundef writeonly captures(none) %2) local_unnamed_addr #0 {
  %4 = alloca %struct.psa_storage_info_t, align 4
  %5 = alloca i64, align 8
  %6 = alloca %struct.psa_storage_info_t, align 4
  %7 = getelementptr inbounds nuw i8, ptr %0, i64 20
  %8 = load i32, ptr %7, align 4, !tbaa !20
  %9 = zext i32 %8 to i64
  call void @llvm.lifetime.start.p0(i64 8, ptr nonnull %6) #8
  %10 = call i32 @psa_its_get_info(i64 noundef %9, ptr noundef nonnull %6) #8
  %.not.i = icmp eq i32 %10, 0
  br i1 %.not.i, label %11, label %psa_crypto_storage_get_data_length.exit

psa_crypto_storage_get_data_length.exit:          ; preds = %3
  call void @llvm.lifetime.end.p0(i64 8, ptr nonnull %6) #8
  br label %52

11:                                               ; preds = %3
  %12 = load i32, ptr %6, align 4, !tbaa !21
  %13 = zext i32 %12 to i64
  call void @llvm.lifetime.end.p0(i64 8, ptr nonnull %6) #8
  %14 = call noalias ptr @calloc(i64 noundef 1, i64 noundef %13) #9
  %15 = icmp eq ptr %14, null
  br i1 %15, label %52, label %16

16:                                               ; preds = %11
  call void @llvm.lifetime.start.p0(i64 8, ptr nonnull %4) #8
  call void @llvm.lifetime.start.p0(i64 8, ptr nonnull %5) #8
  store i64 0, ptr %5, align 8, !tbaa !15
  %17 = call i32 @psa_its_get_info(i64 noundef %9, ptr noundef nonnull %4) #8
  %.not.i23 = icmp eq i32 %17, 0
  br i1 %.not.i23, label %18, label %psa_crypto_storage_load.exit.thread

18:                                               ; preds = %16
  %19 = call i32 @psa_its_get(i64 noundef %9, i32 noundef 0, i32 noundef %12, ptr noundef nonnull %14, ptr noundef nonnull %5) #8
  %20 = load i64, ptr %5, align 8, !tbaa !15
  %.not10.i = icmp eq i64 %20, %13
  br i1 %.not10.i, label %psa_crypto_storage_load.exit, label %psa_crypto_storage_load.exit.thread

psa_crypto_storage_load.exit.thread:              ; preds = %16, %18
  %.0.i.ph = phi i32 [ -153, %18 ], [ %17, %16 ]
  call void @llvm.lifetime.end.p0(i64 8, ptr nonnull %5) #8
  call void @llvm.lifetime.end.p0(i64 8, ptr nonnull %4) #8
  br label %psa_parse_key_data_from_storage.exit.thread

psa_crypto_storage_load.exit:                     ; preds = %18
  call void @llvm.lifetime.end.p0(i64 8, ptr nonnull %5) #8
  call void @llvm.lifetime.end.p0(i64 8, ptr nonnull %4) #8
  %.not22 = icmp eq i32 %19, 0
  br i1 %.not22, label %21, label %psa_parse_key_data_from_storage.exit.thread

21:                                               ; preds = %psa_crypto_storage_load.exit
  %22 = icmp ult i32 %12, 36
  br i1 %22, label %psa_parse_key_data_from_storage.exit.thread, label %23

23:                                               ; preds = %21
  %bcmp.i.i = call i32 @bcmp(ptr noundef nonnull readonly dereferenceable(8) %14, ptr noundef nonnull dereferenceable(8) @.str, i64 8)
  %.not.i.i = icmp eq i32 %bcmp.i.i, 0
  br i1 %.not.i.i, label %24, label %psa_parse_key_data_from_storage.exit.thread

24:                                               ; preds = %23
  %25 = getelementptr inbounds nuw i8, ptr %14, i64 8
  %.0.copyload.i.i = load i32, ptr %25, align 1
  %.not36.i = icmp eq i32 %.0.copyload.i.i, 0
  br i1 %.not36.i, label %26, label %psa_parse_key_data_from_storage.exit.thread

26:                                               ; preds = %24
  %27 = getelementptr inbounds nuw i8, ptr %14, i64 32
  %.0.copyload.i37.i = load i32, ptr %27, align 1
  %28 = zext i32 %.0.copyload.i37.i to i64
  store i64 %28, ptr %2, align 8, !tbaa !15
  %29 = add nsw i64 %13, -36
  %30 = icmp samesign ult i64 %29, %28
  %31 = icmp ugt i32 %.0.copyload.i37.i, 8191
  %or.cond.i = or i1 %31, %30
  br i1 %or.cond.i, label %psa_parse_key_data_from_storage.exit.thread, label %32

32:                                               ; preds = %26
  %33 = icmp eq i32 %.0.copyload.i37.i, 0
  br i1 %33, label %34, label %35

34:                                               ; preds = %32
  store ptr null, ptr %1, align 8, !tbaa !17
  br label %40

35:                                               ; preds = %32
  %36 = call noalias ptr @calloc(i64 noundef 1, i64 noundef %28) #9
  store ptr %36, ptr %1, align 8, !tbaa !17
  %37 = icmp eq ptr %36, null
  br i1 %37, label %psa_parse_key_data_from_storage.exit.thread, label %38

38:                                               ; preds = %35
  %39 = getelementptr inbounds nuw i8, ptr %14, i64 36
  call void @llvm.memcpy.p0.p0.i64(ptr nonnull align 1 %36, ptr nonnull readonly align 1 %39, i64 %28, i1 false)
  br label %40

40:                                               ; preds = %38, %34
  %spec.select = phi i32 [ 0, %38 ], [ -146, %34 ]
  %41 = getelementptr inbounds nuw i8, ptr %14, i64 12
  %.0.copyload.i38.i = load i32, ptr %41, align 1
  %42 = getelementptr inbounds nuw i8, ptr %0, i64 4
  store i32 %.0.copyload.i38.i, ptr %42, align 4, !tbaa !3
  %43 = getelementptr inbounds nuw i8, ptr %14, i64 16
  %.0.copyload.i42.i = load i16, ptr %43, align 1
  store i16 %.0.copyload.i42.i, ptr %0, align 4, !tbaa !10
  %44 = getelementptr inbounds nuw i8, ptr %14, i64 18
  %.0.copyload.i43.i = load i16, ptr %44, align 1
  %45 = getelementptr inbounds nuw i8, ptr %0, i64 2
  store i16 %.0.copyload.i43.i, ptr %45, align 2, !tbaa !11
  %46 = getelementptr inbounds nuw i8, ptr %14, i64 20
  %.0.copyload.i39.i = load i32, ptr %46, align 1
  %47 = getelementptr inbounds nuw i8, ptr %0, i64 8
  store i32 %.0.copyload.i39.i, ptr %47, align 4, !tbaa !12
  %48 = getelementptr inbounds nuw i8, ptr %14, i64 24
  %.0.copyload.i40.i = load i32, ptr %48, align 1
  %49 = getelementptr inbounds nuw i8, ptr %0, i64 12
  store i32 %.0.copyload.i40.i, ptr %49, align 4, !tbaa !13
  %50 = getelementptr inbounds nuw i8, ptr %14, i64 28
  %.0.copyload.i41.i = load i32, ptr %50, align 1
  %51 = getelementptr inbounds nuw i8, ptr %0, i64 16
  store i32 %.0.copyload.i41.i, ptr %51, align 4, !tbaa !14
  br label %psa_parse_key_data_from_storage.exit.thread

psa_parse_key_data_from_storage.exit.thread:      ; preds = %40, %35, %26, %24, %23, %21, %psa_crypto_storage_load.exit.thread, %psa_crypto_storage_load.exit
  %.017 = phi i32 [ %19, %psa_crypto_storage_load.exit ], [ %.0.i.ph, %psa_crypto_storage_load.exit.thread ], [ -141, %35 ], [ -153, %26 ], [ -153, %24 ], [ -153, %23 ], [ -153, %21 ], [ %spec.select, %40 ]
  call void @mbedtls_zeroize_and_free(ptr noundef nonnull %14, i64 noundef %13) #8
  br label %52

52:                                               ; preds = %psa_crypto_storage_get_data_length.exit, %11, %psa_parse_key_data_from_storage.exit.thread
  %.0 = phi i32 [ %.017, %psa_parse_key_data_from_storage.exit.thread ], [ %10, %psa_crypto_storage_get_data_length.exit ], [ -141, %11 ]
  ret i32 %.0
}